target datalayout = "e-m:e-p270:32:32-p271:32:32-p272:64:64-i64:64-i128:128-f80:128-n8:16:32:64-S128"
target triple = "x86_64-unknown-linux-gnu"

%class.btHeightfieldTerrainShape = type { %class.btConcaveShape.base, %class.btVector3, %class.btVector3, %class.btVector3, i32, i32, float, float, float, float, float, %union.anon.0, i32, i8, i8, i8, i8, i32, %class.btVector3, [4 x i8], %class.btAlignedObjectArray, i32, i32, i32, float, ptr }
%class.btConcaveShape.base = type <{ %class.btCollisionShape, float }>
%class.btCollisionShape = type { ptr, i32, ptr, i32, i32 }
%union.anon.0 = type { ptr }
%class.btVector3 = type { [4 x float] }
%class.btAlignedObjectArray = type <{ %class.btAlignedAllocator, [3 x i8], i32, i32, [4 x i8], ptr, i8, [7 x i8] }>
%class.btAlignedAllocator = type { i8 }

; Function Attrs: mustprogress uwtable
define linkonce_odr dso_local void @_ZN18btAlignedAllocatorIN25btHeightfieldTerrainShape5RangeELj16EE10deallocateEPS1_(ptr noundef nonnull align 1 dereferenceable(1) %this, ptr noundef %ptr) #2 comdat align 2 {
entry:
  %this.addr = alloca ptr, align 8
  %ptr.addr = alloca ptr, align 8
  store ptr %this, ptr %this.addr, align 8
  store ptr %ptr, ptr %ptr.addr, align 8
  %0 = load ptr, ptr %ptr.addr, align 8
  call void @_Z21btAlignedFreeInternalPv(ptr noundef %0)
  ret void
}

; Function Attrs: mustprogress uwtable
define linkonce_odr dso_local void @_ZN20btAlignedObjectArrayIN25btHeightfieldTerrainShape5RangeEE10deallocateEv(ptr noundef nonnull align 8 dereferenceable(25) %this) #2 comdat align 2 {
entry:
  %this.addr = alloca ptr, align 8
  store ptr %this, ptr %this.addr, align 8
  %this1 = load ptr, ptr %this.addr, align 8
  %m_data = getelementptr inbounds %class.btAlignedObjectArray, ptr %this1, i32 0, i32 5
  %0 = load ptr, ptr %m_data, align 8
  %tobool = icmp ne ptr %0, null
  br i1 %tobool, label %if.then, label %if.end6

if.then:                                          ; preds = %entry
  %m_ownsMemory = getelementptr inbounds %class.btAlignedObjectArray, ptr %this1, i32 0, i32 6
  %1 = load i8, ptr %m_ownsMemory, align 8
  %tobool2 = trunc i8 %1 to i1
  br i1 %tobool2, label %if.then3, label %if.end

if.then3:                                         ; preds = %if.then
  %m_allocator = getelementptr inbounds %class.btAlignedObjectArray, ptr %this1, i32 0, i32 0
  %m_data4 = getelementptr inbounds %class.btAlignedObjectArray, ptr %this1, i32 0, i32 5
  %2 = load ptr, ptr %m_data4, align 8
  call void @_ZN18btAlignedAllocatorIN25btHeightfieldTerrainShape5RangeELj16EE10deallocateEPS1_(ptr noundef nonnull align 1 dereferenceable(1) %m_allocator, ptr noundef %2)
  br label %if.end

if.end:                                           ; preds = %if.then3, %if.then
  %m_data5 = getelementptr inbounds %class.btAlignedObjectArray, ptr %this1, i32 0, i32 5
  store ptr null, ptr %m_data5, align 8
  br label %if.end6

if.end6:                                          ; preds = %if.end, %entry
  ret void
}

; Function Attrs: mustprogress nounwind uwtable
define linkonce_odr dso_local void @_ZN20btAlignedObjectArrayIN25btHeightfieldTerrainShape5RangeEE7destroyEii(ptr noundef nonnull align 8 dereferenceable(25) %this, i32 noundef %first, i32 noundef %last) #1 comdat align 2 {
entry:
  %this.addr = alloca ptr, align 8
  %first.addr = alloca i32, align 4
  %last.addr = alloca i32, align 4
  %i = alloca i32, align 4
  store ptr %this, ptr %this.addr, align 8
  store i32 %first, ptr %first.addr, align 4
  store i32 %last, ptr %last.addr, align 4
  %0 = load i32, ptr %first.addr, align 4
  store i32 %0, ptr %i, align 4
  br label %for.cond

for.cond:                                         ; preds = %for.inc, %entry
  %1 = load i32, ptr %i, align 4
  %2 = load i32, ptr %last.addr, align 4
  %cmp = icmp slt i32 %1, %2
  br i1 %cmp, label %for.body, label %for.end

for.body:                                         ; preds = %for.cond
  br label %for.inc

for.inc:                                          ; preds = %for.body
  %3 = load i32, ptr %i, align 4
  %inc = add nsw i32 %3, 1
  store i32 %inc, ptr %i, align 4
  br label %for.cond, !llvm.loop !19

for.end:                                          ; preds = %for.cond
  ret void
}

; Function Attrs: mustprogress nounwind uwtable
define linkonce_odr dso_local noundef i32 @_ZNK20btAlignedObjectArrayIN25btHeightfieldTerrainShape5RangeEE4sizeEv(ptr noundef nonnull align 8 dereferenceable(25) %this) #1 comdat align 2 {
entry:
  %this.addr = alloca ptr, align 8
  store ptr %this, ptr %this.addr, align 8
  %this1 = load ptr, ptr %this.addr, align 8
  %m_size = getelementptr inbounds %class.btAlignedObjectArray, ptr %this1, i32 0, i32 2
  %0 = load i32, ptr %m_size, align 4
  ret i32 %0
}

; Function Attrs: noreturn nounwind uwtable
define linkonce_odr hidden void @__clang_call_terminate(ptr noundef %0) #7 comdat {
  %2 = call ptr @__cxa_begin_catch(ptr %0) #9
  call void @_ZSt9terminatev() #10
  unreachable
}

; Function Attrs: mustprogress uwtable
define linkonce_odr dso_local void @_ZN20btAlignedObjectArrayIN25btHeightfieldTerrainShape5RangeEE5clearEv(ptr noundef nonnull align 8 dereferenceable(25) %this) #2 comdat align 2 {
entry:
  %this.addr = alloca ptr, align 8
  store ptr %this, ptr %this.addr, align 8
  %this1 = load ptr, ptr %this.addr, align 8
  %call = call noundef i32 @_ZNK20btAlignedObjectArrayIN25btHeightfieldTerrainShape5RangeEE4sizeEv(ptr noundef nonnull align 8 dereferenceable(25) %this1)
  call void @_ZN20btAlignedObjectArrayIN25btHeightfieldTerrainShape5RangeEE7destroyEii(ptr noundef nonnull align 8 dereferenceable(25) %this1, i32 noundef 0, i32 noundef %call)
  call void @_ZN20btAlignedObjectArrayIN25btHeightfieldTerrainShape5RangeEE10deallocateEv(ptr noundef nonnull align 8 dereferenceable(25) %this1)
  call void @_ZN20btAlignedObjectArrayIN25btHeightfieldTerrainShape5RangeEE4initEv(ptr noundef nonnull align 8 dereferenceable(25) %this1)
  ret void
}

; Function Attrs: mustprogress nounwind uwtable
define linkonce_odr dso_local void @_ZN20btAlignedObjectArrayIN25btHeightfieldTerrainShape5RangeEE4initEv(ptr noundef nonnull align 8 dereferenceable(25) %this) #1 comdat align 2 {
entry:
  %this.addr = alloca ptr, align 8
  store ptr %this, ptr %this.addr, align 8
  %this1 = load ptr, ptr %this.addr, align 8
  %m_ownsMemory = getelementptr inbounds %class.btAlignedObjectArray, ptr %this1, i32 0, i32 6
  store i8 1, ptr %m_ownsMemory, align 8
  %m_data = getelementptr inbounds %class.btAlignedObjectArray, ptr %this1, i32 0, i32 5
  store ptr null, ptr %m_data, align 8
  %m_size = getelementptr inbounds %class.btAlignedObjectArray, ptr %this1, i32 0, i32 2
  store i32 0, ptr %m_size, align 4
  %m_capacity = getelementptr inbounds %class.btAlignedObjectArray, ptr %this1, i32 0, i32 3
  store i32 0, ptr %m_capacity, align 8
  ret void
}

; Function Attrs: mustprogress nounwind uwtable
define linkonce_odr dso_local void @_ZN18btAlignedAllocatorIN25btHeightfieldTerrainShape5RangeELj16EEC2Ev(ptr noundef nonnull align 1 dereferenceable(1) %this) unnamed_addr #1 comdat align 2 {
entry:
  %this.addr = alloca ptr, align 8
  store ptr %this, ptr %this.addr, align 8
  ret void
}

; Function Attrs: mustprogress nounwind uwtable
define linkonce_odr dso_local void @_ZN20btAlignedObjectArrayIN25btHeightfieldTerrainShape5RangeEED2Ev(ptr noundef nonnull align 8 dereferenceable(25) %this) unnamed_addr #1 comdat align 2 personality ptr @__gxx_personality_v0 {
entry:
  %this.addr = alloca ptr, align 8
  store ptr %this, ptr %this.addr, align 8
  %this1 = load ptr, ptr %this.addr, align 8
  invoke void @_ZN20btAlignedObjectArrayIN25btHeightfieldTerrainShape5RangeEE5clearEv(ptr noundef nonnull align 8 dereferenceable(25) %this1)
          to label %invoke.cont unwind label %terminate.lpad

invoke.cont:                                      ; preds = %entry
  ret void

terminate.lpad:                                   ; preds = %entry
  %0 = landingpad { ptr, i32 }
          catch ptr null
  %1 = extractvalue { ptr, i32 } %0, 0
  call void @__clang_call_terminate(ptr %1) #10
  unreachable
}

; Function Attrs: mustprogress uwtable
define linkonce_odr dso_local void @_ZN20btAlignedObjectArrayIN25btHeightfieldTerrainShape5RangeEEC2Ev(ptr noundef nonnull align 8 dereferenceable(25) %this) unnamed_addr #2 comdat align 2 {
entry:
  %this.addr = alloca ptr, align 8
  store ptr %this, ptr %this.addr, align 8
  %this1 = load ptr, ptr %this.addr, align 8
  %m_allocator = getelementptr inbounds %class.btAlignedObjectArray, ptr %this1, i32 0, i32 0
  call void @_ZN18btAlignedAllocatorIN25btHeightfieldTerrainShape5RangeELj16EEC2Ev(ptr noundef nonnull align 1 dereferenceable(1) %m_allocator)
  call void @_ZN20btAlignedObjectArrayIN25btHeightfieldTerrainShape5RangeEE4initEv(ptr noundef nonnull align 8 dereferenceable(25) %this1)
  ret void
}

; Function Attrs: mustprogress nounwind uwtable
define linkonce_odr dso_local void @_ZN9btVector3C2Ev(ptr noundef nonnull align 4 dereferenceable(16) %this) unnamed_addr #1 comdat align 2 {
entry:
  %this.addr = alloca ptr, align 8
  store ptr %this, ptr %this.addr, align 8
  ret void
}

; Function Attrs: mustprogress uwtable
define dso_local void @_ZN25btHeightfieldTerrainShapeC2EiiPKfffib(ptr noundef nonnull align 8 dereferenceable(208) %this, i32 noundef %heightStickWidth, i32 noundef %heightStickLength, ptr noundef %heightfieldData, float noundef %minHeight, float noundef %maxHeight, i32 noundef %upAxis, i1 noundef zeroext %flipQuadEdges) unnamed_addr #2 align 2 personality ptr @__gxx_personality_v0 {
entry:
  %this.addr = alloca ptr, align 8
  %heightStickWidth.addr = alloca i32, align 4
  %heightStickLength.addr = alloca i32, align 4
  %heightfieldData.addr = alloca ptr, align 8
  %minHeight.addr = alloca float, align 4
  %maxHeight.addr = alloca float, align 4
  %upAxis.addr = alloca i32, align 4
  %flipQuadEdges.addr = alloca i8, align 1
  %exn.slot = alloca ptr, align 8
  %ehselector.slot = alloca i32, align 4
  store ptr %this, ptr %this.addr, align 8
  store i32 %heightStickWidth, ptr %heightStickWidth.addr, align 4
  store i32 %heightStickLength, ptr %heightStickLength.addr, align 4
  store ptr %heightfieldData, ptr %heightfieldData.addr, align 8
  store float %minHeight, ptr %minHeight.addr, align 4
  store float %maxHeight, ptr %maxHeight.addr, align 4
  store i32 %upAxis, ptr %upAxis.addr, align 4
  %frombool = zext i1 %flipQuadEdges to i8
  store i8 %frombool, ptr %flipQuadEdges.addr, align 1
  %this1 = load ptr, ptr %this.addr, align 8
  call void @_ZN14btConcaveShapeC2Ev(ptr noundef nonnull align 8 dereferenceable(36) %this1)
  store ptr getelementptr inbounds ({ [20 x ptr] }, ptr @_ZTV25btHeightfieldTerrainShape, i32 0, i32 0, i32 2), ptr %this1, align 8
  %m_localAabbMin = getelementptr inbounds %class.btHeightfieldTerrainShape, ptr %this1, i32 0, i32 1
  invoke void @_ZN9btVector3C2Ev(ptr noundef nonnull align 4 dereferenceable(16) %m_localAabbMin)
          to label %invoke.cont unwind label %lpad

invoke.cont:                                      ; preds = %entry
  %m_localAabbMax = getelementptr inbounds %class.btHeightfieldTerrainShape, ptr %this1, i32 0, i32 2
  invoke void @_ZN9btVector3C2Ev(ptr noundef nonnull align 4 dereferenceable(16) %m_localAabbMax)
          to label %invoke.cont2 unwind label %lpad

invoke.cont2:                                     ; preds = %invoke.cont
  %m_localOrigin = getelementptr inbounds %class.btHeightfieldTerrainShape, ptr %this1, i32 0, i32 3
  invoke void @_ZN9btVector3C2Ev(ptr noundef nonnull align 4 dereferenceable(16) %m_localOrigin)
          to label %invoke.cont3 unwind label %lpad

invoke.cont3:                                     ; preds = %invoke.cont2
  %m_localScaling = getelementptr inbounds %class.btHeightfieldTerrainShape, ptr %this1, i32 0, i32 18
  invoke void @_ZN9btVector3C2Ev(ptr noundef nonnull align 4 dereferenceable(16) %m_localScaling)
          to label %invoke.cont4 unwind label %lpad

invoke.cont4:                                     ; preds = %invoke.cont3
  %m_vboundsGrid = getelementptr inbounds %class.btHeightfieldTerrainShape, ptr %this1, i32 0, i32 20
  invoke void @_ZN20btAlignedObjectArrayIN25btHeightfieldTerrainShape5RangeEEC2Ev(ptr noundef nonnull align 8 dereferenceable(25) %m_vboundsGrid)
          to label %invoke.cont5 unwind label %lpad

invoke.cont5:                                     ; preds = %invoke.cont4
  %m_userValue3 = getelementptr inbounds %class.btHeightfieldTerrainShape, ptr %this1, i32 0, i32 24
  store float 0.000000e+00, ptr %m_userValue3, align 4
  %m_triangleInfoMap = getelementptr inbounds %class.btHeightfieldTerrainShape, ptr %this1, i32 0, i32 25
  store ptr null, ptr %m_triangleInfoMap, align 8
  %0 = load i32, ptr %heightStickWidth.addr, align 4
  %1 = load i32, ptr %heightStickLength.addr, align 4
  %2 = load ptr, ptr %heightfieldData.addr, align 8
  %3 = load float, ptr %minHeight.addr, align 4
  %4 = load float, ptr %maxHeight.addr, align 4
  %5 = load i32, ptr %upAxis.addr, align 4
  %6 = load i8, ptr %flipQuadEdges.addr, align 1
  %tobool = trunc i8 %6 to i1
  invoke void @_ZN25btHeightfieldTerrainShape10initializeEiiPKvfffi14PHY_ScalarTypeb(ptr noundef nonnull align 8 dereferenceable(208) %this1, i32 noundef %0, i32 noundef %1, ptr noundef %2, float noundef 1.000000e+00, float noundef %3, float noundef %4, i32 noundef %5, i32 noundef 0, i1 noundef zeroext %tobool)
          to label %invoke.cont7 unwind label %lpad6

invoke.cont7:                                     ; preds = %invoke.cont5
  ret void

lpad:                                             ; preds = %invoke.cont4, %invoke.cont3, %invoke.cont2, %invoke.cont, %entry
  %7 = landingpad { ptr, i32 }
          cleanup
  %8 = extractvalue { ptr, i32 } %7, 0
  store ptr %8, ptr %exn.slot, align 8
  %9 = extractvalue { ptr, i32 } %7, 1
  store i32 %9, ptr %ehselector.slot, align 4
  br label %ehcleanup

lpad6:                                            ; preds = %invoke.cont5
  %10 = landingpad { ptr, i32 }
          cleanup
  %11 = extractvalue { ptr, i32 } %10, 0
  store ptr %11, ptr %exn.slot, align 8
  %12 = extractvalue { ptr, i32 } %10, 1
  store i32 %12, ptr %ehselector.slot, align 4
  call void @_ZN20btAlignedObjectArrayIN25btHeightfieldTerrainShape5RangeEED2Ev(ptr noundef nonnull align 8 dereferenceable(25) %m_vboundsGrid) #9
  br label %ehcleanup

ehcleanup:                                        ; preds = %lpad6, %lpad
  call void @_ZN14btConcaveShapeD2Ev(ptr noundef nonnull align 8 dereferenceable(36) %this1) #9
  br label %eh.resume

eh.resume:                                        ; preds = %ehcleanup
  %exn = load ptr, ptr %exn.slot, align 8
  %sel = load i32, ptr %ehselector.slot, align 4
  %lpad.val = insertvalue { ptr, i32 } poison, ptr %exn, 0
  %lpad.val8 = insertvalue { ptr, i32 } %lpad.val, i32 %sel, 1
  resume { ptr, i32 } %lpad.val8
}