; Function Attrs: mustprogress uwtable
define dso_local void @_ZN25btHeightfieldTerrainShapeC2EiiPKfffib(ptr noundef nonnull align 8 dereferenceable(208) %this, i32 noundef %heightStickWidth, i32 noundef %heightStickLength, ptr noundef %heightfieldData, float noundef %minHeight, float noundef %maxHeight, i32 noundef %upAxis, i1 noundef zeroext %flipQuadEdges) unnamed_addr #0 align 2 personality ptr @__gxx_personality_v0 {
invoke.cont5:
  tail call void @_ZN14btConcaveShapeC2Ev(ptr noundef nonnull align 8 dereferenceable(36) %this)
  store ptr getelementptr inbounds ({ [20 x ptr] }, ptr @_ZTV25btHeightfieldTerrainShape, i64 0, i32 0, i64 2), ptr %this, align 8
  %m_ownsMemory.i.i = getelementptr inbounds i8, ptr %this, i64 176
  store i8 1, ptr %m_ownsMemory.i.i, align 8
  %m_data.i.i = getelementptr inbounds i8, ptr %this, i64 168
  store ptr null, ptr %m_data.i.i, align 8
  %m_size.i.i = getelementptr inbounds i8, ptr %this, i64 156
  store i32 0, ptr %m_size.i.i, align 4
  %m_capacity.i.i = getelementptr inbounds i8, ptr %this, i64 160
  store i32 0, ptr %m_capacity.i.i, align 8
  %m_userValue3 = getelementptr inbounds i8, ptr %this, i64 196
  store float 0.000000e+00, ptr %m_userValue3, align 4
  %m_triangleInfoMap = getelementptr inbounds i8, ptr %this, i64 200
  store ptr null, ptr %m_triangleInfoMap, align 8
  tail call void @_ZN25btHeightfieldTerrainShape10initializeEiiPKvfffi14PHY_ScalarTypeb(ptr noundef nonnull align 8 dereferenceable(208) %this, i32 noundef %heightStickWidth, i32 noundef %heightStickLength, ptr noundef %heightfieldData, float noundef 1.000000e+00, float noundef %minHeight, float noundef %maxHeight, i32 noundef %upAxis, i32 noundef 0, i1 noundef zeroext %flipQuadEdges)
  ret void
}